Certificate:
    Data:
        Version: 3 (0x2)
        Serial Number: 1 (0x1)
        Signature Algorithm: sha256WithRSAEncryption
        Issuer: C=FR, ST=Paris, L=Paris, O=Evil Corp/emailAddress=didi@didi.gmail.com, CN=CV
        Validity
            Not Before: Jul 26 14:37:59 2023 GMT
            Not After : Jul 25 14:37:59 2024 GMT
        Subject: C=FR, ST=Paris, O=Evil Corp, CN=CV/emailAddress=didi@didi.gmail.com
        Subject Public Key Info:
            Public Key Algorithm: rsaEncryption
                RSA Public-Key: (4096 bit)
                Modulus:
                    00:cf:ce:73:3d:1c:18:91:5c:a2:6c:17:d5:56:59:
                    1f:73:0d:af:58:06:5d:38:8a:b4:6c:6e:97:93:00:
                    b8:1f:e5:26:ef:45:ce:ba:1c:07:a8:a4:15:fa:57:
                    69:5e:a4:74:32:48:33:b9:de:26:d1:f4:6c:e4:f6:
                    f1:32:61:5c:7e:91:d0:29:26:5c:54:1c:b8:7c:9d:
                    e0:5f:ed:29:fb:60:94:31:81:c4:8a:2a:cd:dd:4f:
                    4d:b1:d5:e3:74:ee:ec:92:6f:16:14:9b:be:66:a4:
                    6b:50:9b:d4:c7:db:1d:e5:c6:91:99:3a:b4:f4:ae:
                    e6:d2:30:62:28:1b:39:ca:77:36:5c:3d:1a:6a:4d:
                    aa:fc:fc:d1:da:de:1c:05:c5:a3:c2:7d:5a:27:ca:
                    d4:42:2e:01:0b:26:d0:dc:d3:5e:df:60:b0:01:f2:
                    b5:7f:1e:14:0a:b9:77:ba:94:18:5d:49:5c:fb:1e:
                    0a:5f:54:45:cf:2f:9d:d6:d9:c3:95:bd:f7:0d:67:
                    29:8f:00:0e:2b:82:e8:3b:db:d8:e1:76:c6:d1:35:
                    08:65:d9:73:05:05:6b:e3:03:16:fc:c0:d4:45:c2:
                    86:69:a1:05:ec:f2:71:8b:2a:ac:12:31:d6:1d:de:
                    16:76:4a:c7:02:11:4f:ce:e5:93:96:c2:ff:26:2b:
                    01:40:fa:aa:ba:76:f5:7f:09:b1:d6:a3:fe:27:a8:
                    7d:eb:f9:bc:9e:f8:ac:9a:75:3c:37:db:75:49:b8:
                    ff:32:20:18:75:ed:d4:4d:d4:e7:a3:be:a1:83:03:
                    00:b0:a9:fa:f1:fb:33:ff:2c:ea:72:8a:0d:04:fa:
                    96:00:05:e0:32:8b:02:12:e9:cc:bc:93:8b:63:e0:
                    bc:d5:6e:5e:b1:a0:f1:c5:2e:c8:d8:d3:e3:fb:4e:
                    df:37:94:cc:00:ba:74:72:54:80:f2:a6:8a:f4:08:
                    e0:ab:ec:18:51:32:6b:4e:07:d7:16:dc:c3:df:46:
                    1e:f1:a7:c0:64:9d:87:f6:9e:8a:ed:ef:d1:7b:dd:
                    a8:ef:eb:66:f1:38:36:3d:e3:47:19:20:b7:60:2c:
                    83:3a:bd:11:90:45:0a:72:67:b6:42:5a:98:e3:05:
                    fb:e3:4e:da:6c:9f:40:8c:35:14:6d:41:af:02:4a:
                    5d:f1:99:b7:eb:da:d8:74:60:75:a3:6d:48:bb:6d:
                    79:5c:df:ef:53:4c:14:57:e1:af:e1:e1:c4:fe:14:
                    cb:93:e4:f0:2f:ce:f1:67:5d:cc:0d:e0:fa:22:5e:
                    2c:c8:0d:4c:36:9b:1f:85:3d:c7:1e:7f:f7:6b:27:
                    aa:11:3b:7b:c1:0b:e7:35:3f:5f:c6:26:60:bc:39:
                    53:44:29
                Exponent: 65537 (0x10001)
        X509v3 extensions:
            X509v3 Extended Key Usage: 
                TLS Web Server Authentication
    Signature Algorithm: sha256WithRSAEncryption
         00:44:f6:26:78:66:18:38:61:7e:68:2d:37:2a:14:f6:15:1a:
         32:bc:81:b3:ae:de:3d:41:f0:81:32:c7:9b:0e:ff:12:84:30:
         ec:23:ca:ae:0f:e8:92:d8:a1:76:d0:90:48:d7:ef:52:db:7a:
         54:49:9d:55:f2:f6:30:75:2e:37:e7:a6:d8:a7:7c:7b:82:a5:
         fd:34:ea:9d:28:21:5a:d3:cc:be:55:bd:78:97:3e:82:4b:24:
         53:2f:85:c3:db:d4:5c:ff:a1:88:4c:d2:c4:28:e3:8a:ac:c0:
         4f:56:97:9e:13:d0:09:be:36:a6:18:f0:65:bb:5b:b6:1f:3e:
         76:f2:fe:a7:c8:a8:1e:79:80:b8:23:0a:ec:11:e9:6f:53:f1:
         33:ee:93:52:ef:cc:72:c7:ed:e7:ef:46:74:01:f3:7a:22:d0:
         85:05:a3:48:76:f2:0f:fc:d5:b1:ad:b3:59:5d:ef:17:a4:03:
         83:5b:ac:e3:00:eb:09:d1:95:c0:80:10:b6:ad:82:f8:14:22:
         8c:15:68:aa:40:bc:e6:8e:58:fd:77:6f:f1:0e:4f:91:71:51:
         22:5c:66:a1:9b:d7:79:4a:cf:37:50:8d:50:b1:24:4e:6c:0b:
         f3:8a:83:59:c6:e8:72:0d:60:60:30:02:36:b5:11:64:b9:33:
         2b:86:ef:41:9e:da:cb:e0:41:53:61:f9:d8:87:93:ba:fb:d2:
         70:93:17:88:e2:7f:d7:cc:e8:c1:fb:f2:65:00:3b:59:3b:f3:
         94:f8:c1:bb:f9:3e:b2:4d:39:4f:93:e9:df:8d:9e:26:f7:c1:
         35:3f:1f:1c:77:91:85:55:84:a8:ef:ff:01:57:fc:2c:24:af:
         fa:a7:0c:fb:21:f2:7b:47:47:cd:06:e0:4a:43:a1:ae:a1:67:
         b9:05:6a:aa:82:6b:cd:e0:2b:7b:b2:ac:63:ff:b1:89:00:3d:
         80:c5:d2:aa:9d:2e:fc:e1:eb:0b:5f:a7:b0:58:4b:0d:03:5d:
         86:aa:83:78:aa:46:69:f3:3b:62:01:07:b5:2c:54:43:a5:e8:
         48:d5:bf:10:e5:d3:9b:7d:8d:e3:99:81:b3:97:cf:8f:af:32:
         18:84:66:97:74:d0:ad:52:9d:47:a6:9e:ea:e7:fe:bf:d6:32:
         cb:1c:92:a1:96:fa:04:d3:54:26:c8:07:f7:b6:b6:92:0b:07:
         84:e6:15:12:2e:e3:0c:73:04:0b:78:6a:f5:2e:4d:65:d6:4e:
         7f:72:63:40:10:b0:89:65:99:1d:e8:77:71:19:26:5d:b8:ce:
         94:5e:a0:f6:43:5c:da:06:7d:2f:d1:2b:66:a6:94:42:98:ab:
         40:29:12:1c:3f:51:b9:db
-----BEGIN CERTIFICATE-----
MIIFZjCCA06gAwIBAgIBATANBgkqhkiG9w0BAQsFADByMQswCQYDVQQGEwJGUjEO
MAwGA1UECAwFUGFyaXMxDjAMBgNVBAcMBVBhcmlzMRIwEAYDVQQKDAlFdmlsIENv
cnAxIjAgBgkqhkiG9w0BCQEWE2RpZGlAZGlkaS5nbWFpbC5jb20xCzAJBgNVBAMM
AkNWMB4XDTIzMDcyNjE0Mzc1OVoXDTI0MDcyNTE0Mzc1OVowYjELMAkGA1UEBhMC
RlIxDjAMBgNVBAgMBVBhcmlzMRIwEAYDVQQKDAlFdmlsIENvcnAxCzAJBgNVBAMM
AkNWMSIwIAYJKoZIhvcNAQkBFhNkaWRpQGRpZGkuZ21haWwuY29tMIICIjANBgkq
hkiG9w0BAQEFAAOCAg8AMIICCgKCAgEAz85zPRwYkVyibBfVVlkfcw2vWAZdOIq0
bG6XkwC4H+Um70XOuhwHqKQV+ldpXqR0Mkgzud4m0fRs5PbxMmFcfpHQKSZcVBy4
fJ3gX+0p+2CUMYHEiirN3U9NsdXjdO7skm8WFJu+ZqRrUJvUx9sd5caRmTq09K7m
0jBiKBs5ync2XD0aak2q/PzR2t4cBcWjwn1aJ8rUQi4BCybQ3NNe32CwAfK1fx4U
Crl3upQYXUlc+x4KX1RFzy+d1tnDlb33DWcpjwAOK4LoO9vY4XbG0TUIZdlzBQVr
4wMW/MDURcKGaaEF7PJxiyqsEjHWHd4WdkrHAhFPzuWTlsL/JisBQPqqunb1fwmx
1qP+J6h96/m8nvismnU8N9t1Sbj/MiAYde3UTdTno76hgwMAsKn68fsz/yzqcooN
BPqWAAXgMosCEunMvJOLY+C81W5esaDxxS7I2NPj+07fN5TMALp0clSA8qaK9Ajg
q+wYUTJrTgfXFtzD30Ye8afAZJ2H9p6K7e/Re92o7+tm8Tg2PeNHGSC3YCyDOr0R
kEUKcme2QlqY4wX7407abJ9AjDUUbUGvAkpd8Zm369rYdGB1o21Iu215XN/vU0wU
V+Gv4eHE/hTLk+TwL87xZ13MDeD6Il4syA1MNpsfhT3HHn/3ayeqETt7wQvnNT9f
xiZgvDlTRCkCAwEAAaMXMBUwEwYDVR0lBAwwCgYIKwYBBQUHAwEwDQYJKoZIhvcN
AQELBQADggIBAABE9iZ4Zhg4YX5oLTcqFPYVGjK8gbOu3j1B8IEyx5sO/xKEMOwj
yq4P6JLYoXbQkEjX71LbelRJnVXy9jB1LjfnptinfHuCpf006p0oIVrTzL5VvXiX
PoJLJFMvhcPb1Fz/oYhM0sQo44qswE9Wl54T0Am+NqYY8GW7W7YfPnby/qfIqB55
gLgjCuwR6W9T8TPuk1LvzHLH7efvRnQB83oi0IUFo0h28g/81bGts1ld7xekA4Nb
rOMA6wnRlcCAELatgvgUIowVaKpAvOaOWP13b/EOT5FxUSJcZqGb13lKzzdQjVCx
JE5sC/OKg1nG6HINYGAwAja1EWS5MyuG70Ge2svgQVNh+diHk7r70nCTF4jif9fM
6MH78mUAO1k785T4wbv5PrJNOU+T6d+Nnib3wTU/Hxx3kYVVhKjv/wFX/Cwkr/qn
DPsh8ntHR80G4EpDoa6hZ7kFaqqCa83gK3uyrGP/sYkAPYDF0qqdLvzh6wtfp7BY
Sw0DXYaqg3iqRmnzO2IBB7UsVEOl6EjVvxDl05t9jeOZgbOXz4+vMhiEZpd00K1S
nUemnurn/r/WMssckqGW+gTTVCbIB/e2tpILB4TmFRIu4wxzBAt4avUuTWXWTn9y
Y0AQsIllmR3od3EZJl24zpReoPZDXNoGfS/RK2amlEKYq0ApEhw/Ubnb
-----END CERTIFICATE-----
