Certificate:
    Data:
        Version: 3 (0x2)
        Serial Number: 2 (0x2)
        Signature Algorithm: sha256WithRSAEncryption
        Issuer: C=FR, ST=Paris, L=Paris, O=Evil Corp/emailAddress=didi@didi.com, CN=EATM
        Validity
            Not Before: Jul 26 16:08:12 2023 GMT
            Not After : Jul 25 16:08:12 2024 GMT
        Subject: C=FR, ST=Paris, O=Evil Corp, CN=EATM/emailAddress=didi@didi.com
        Subject Public Key Info:
            Public Key Algorithm: rsaEncryption
                RSA Public-Key: (2048 bit)
                Modulus:
                    00:c9:30:65:22:0c:18:79:9e:66:3d:f6:d0:ae:3b:
                    ee:99:66:eb:a3:9a:94:2a:cd:49:09:65:4f:f8:55:
                    07:a5:e0:4b:66:97:b3:95:a2:11:15:67:32:59:10:
                    e3:b8:cb:25:1d:33:41:ab:bc:f5:48:a0:8d:04:6b:
                    36:cc:76:26:75:5b:76:d9:8f:f3:1b:92:bf:65:61:
                    60:91:f2:3f:95:96:43:16:49:81:95:83:81:59:c5:
                    e3:59:d3:88:c7:17:81:52:9e:6f:6e:76:2d:fd:3b:
                    2c:14:84:c4:ac:79:21:dc:b6:c5:7e:0a:45:1c:8a:
                    44:bf:d7:48:07:45:aa:11:2a:b5:5a:9f:6d:41:68:
                    bd:81:9f:21:26:7f:45:a5:12:38:3b:ed:c5:1e:f2:
                    66:91:a6:34:12:f7:14:4a:4a:8a:79:49:9d:0e:6e:
                    dc:86:5f:50:4c:48:2d:44:e1:4f:da:5e:e8:bd:ba:
                    8c:25:1c:e4:36:c2:5a:9b:f4:79:8b:46:cd:bf:ba:
                    11:27:3f:92:37:d9:b4:24:3c:ce:9a:e6:27:64:aa:
                    0a:0d:09:6f:63:71:21:a3:38:87:e7:68:b9:17:11:
                    ac:5c:01:28:71:19:29:08:b1:6c:25:e9:09:89:ab:
                    1c:1d:e5:e9:d6:11:9d:8e:80:ad:36:60:6f:c2:bf:
                    0f:c5
                Exponent: 65537 (0x10001)
        X509v3 extensions:
            X509v3 Extended Key Usage: 
                TLS Web Server Authentication
    Signature Algorithm: sha256WithRSAEncryption
         6d:9d:1e:0e:ff:c9:db:30:83:f3:6b:33:fe:86:d9:d8:a5:67:
         ad:26:6a:8e:17:05:cd:34:35:b2:27:a8:9e:bb:d6:cb:ef:11:
         9f:10:15:ae:20:b7:48:c2:73:0b:f6:4b:52:ff:75:f4:dc:9a:
         11:34:e5:70:55:3e:8b:54:b1:0c:fe:98:68:fd:1c:66:93:81:
         14:a7:3e:e1:d0:a4:43:0c:6c:2e:dc:d2:fb:67:c6:94:c5:b0:
         98:e0:d8:3f:ae:f2:62:a3:6d:fd:61:72:71:c5:41:64:38:d1:
         ed:25:ed:8c:e5:42:74:b2:03:1d:01:7a:01:a9:65:00:68:c5:
         4b:12:7d:64:18:f9:7a:98:b7:17:e4:cd:9d:ff:e0:1e:7e:b1:
         31:4f:6c:8f:80:65:bc:6b:cb:74:9b:c5:3f:0b:6c:ba:63:72:
         bd:78:88:52:69:17:41:32:61:ae:c4:d7:6e:01:9d:6b:35:8b:
         ee:5c:c7:01:7a:26:e7:57:fa:05:98:8d:5e:5f:ab:cb:8b:bb:
         68:72:2a:55:ba:49:16:84:dc:71:dc:03:d5:eb:e0:b1:77:af:
         0a:d5:2c:89:2d:3e:b2:86:a0:7d:e3:35:29:c0:66:ca:c0:20:
         11:c2:71:f7:38:68:8f:97:2c:73:2f:95:b0:f0:38:c2:5c:92:
         3b:8f:b8:4d
-----BEGIN CERTIFICATE-----
MIIDXjCCAkagAwIBAgIBAjANBgkqhkiG9w0BAQsFADBuMQswCQYDVQQGEwJGUjEO
MAwGA1UECAwFUGFyaXMxDjAMBgNVBAcMBVBhcmlzMRIwEAYDVQQKDAlFdmlsIENv
cnAxHDAaBgkqhkiG9w0BCQEWDWRpZGlAZGlkaS5jb20xDTALBgNVBAMMBEVBVE0w
HhcNMjMwNzI2MTYwODEyWhcNMjQwNzI1MTYwODEyWjBeMQswCQYDVQQGEwJGUjEO
MAwGA1UECAwFUGFyaXMxEjAQBgNVBAoMCUV2aWwgQ29ycDENMAsGA1UEAwwERUFU
TTEcMBoGCSqGSIb3DQEJARYNZGlkaUBkaWRpLmNvbTCCASIwDQYJKoZIhvcNAQEB
BQADggEPADCCAQoCggEBAMkwZSIMGHmeZj320K477plm66OalCrNSQllT/hVB6Xg
S2aXs5WiERVnMlkQ47jLJR0zQau89UigjQRrNsx2JnVbdtmP8xuSv2VhYJHyP5WW
QxZJgZWDgVnF41nTiMcXgVKeb252Lf07LBSExKx5Idy2xX4KRRyKRL/XSAdFqhEq
tVqfbUFovYGfISZ/RaUSODvtxR7yZpGmNBL3FEpKinlJnQ5u3IZfUExILUThT9pe
6L26jCUc5DbCWpv0eYtGzb+6ESc/kjfZtCQ8zprmJ2SqCg0Jb2NxIaM4h+douRcR
rFwBKHEZKQixbCXpCYmrHB3l6dYRnY6ArTZgb8K/D8UCAwEAAaMXMBUwEwYDVR0l
BAwwCgYIKwYBBQUHAwEwDQYJKoZIhvcNAQELBQADggEBAG2dHg7/ydswg/NrM/6G
2dilZ60mao4XBc00NbInqJ671svvEZ8QFa4gt0jCcwv2S1L/dfTcmhE05XBVPotU
sQz+mGj9HGaTgRSnPuHQpEMMbC7c0vtnxpTFsJjg2D+u8mKjbf1hcnHFQWQ40e0l
7YzlQnSyAx0BegGpZQBoxUsSfWQY+XqYtxfkzZ3/4B5+sTFPbI+AZbxry3SbxT8L
bLpjcr14iFJpF0EyYa7E124BnWs1i+5cxwF6JudX+gWYjV5fq8uLu2hyKlW6SRaE
3HHcA9Xr4LF3rwrVLIktPrKGoH3jNSnAZsrAIBHCcfc4aI+XLHMvlbDwOMJckjuP
uE0=
-----END CERTIFICATE-----
